target datalayout = "e-m:e-p270:32:32-p271:32:32-p272:64:64-i64:64-i128:128-f80:128-n8:16:32:64-S128"
target triple = "x86_64-unknown-linux-gnu"

%"class.QuantLib::PagodaMultiPathPricer" = type { %"class.QuantLib::PathPricer", double, double, double }
%"class.QuantLib::PathPricer" = type { ptr }
%"class.QuantLib::MultiPath" = type { %"class.std::vector" }
%"class.std::vector" = type { %"struct.std::_Vector_base" }
%"struct.std::_Vector_base" = type { %"struct.std::_Vector_base<QuantLib::Path, std::allocator<QuantLib::Path>>::_Vector_impl" }
%"struct.std::_Vector_base<QuantLib::Path, std::allocator<QuantLib::Path>>::_Vector_impl" = type { %"struct.std::_Vector_base<QuantLib::Path, std::allocator<QuantLib::Path>>::_Vector_impl_data" }
%"struct.std::_Vector_base<QuantLib::Path, std::allocator<QuantLib::Path>>::_Vector_impl_data" = type { ptr, ptr, ptr }
%"class.QuantLib::Path" = type { %"class.QuantLib::TimeGrid", %"class.QuantLib::Array" }
%"class.QuantLib::TimeGrid" = type { %"class.std::vector.25", %"class.std::vector.25", %"class.std::vector.25" }
%"class.std::vector.25" = type { %"struct.std::_Vector_base.26" }
%"struct.std::_Vector_base.26" = type { %"struct.std::_Vector_base<double, std::allocator<double>>::_Vector_impl" }
%"struct.std::_Vector_base<double, std::allocator<double>>::_Vector_impl" = type { %"struct.std::_Vector_base<double, std::allocator<double>>::_Vector_impl_data" }
%"struct.std::_Vector_base<double, std::allocator<double>>::_Vector_impl_data" = type { ptr, ptr, ptr }
%"class.QuantLib::Array" = type { %"class.std::unique_ptr", i64 }
%"class.std::unique_ptr" = type { %"struct.std::__uniq_ptr_data" }
%"struct.std::__uniq_ptr_data" = type { %"class.std::__uniq_ptr_impl" }
%"class.std::__uniq_ptr_impl" = type { %"class.std::tuple" }
%"class.std::tuple" = type { %"struct.std::_Tuple_impl" }
%"struct.std::_Tuple_impl" = type { %"struct.std::_Head_base.31" }
%"struct.std::_Head_base.31" = type { ptr }

; Function Attrs: mustprogress nounwind uwtable
define linkonce_odr noundef nonnull align 8 dereferenceable(8) ptr @_ZNSt10_Head_baseILm0EPdLb0EE7_M_headERKS1_(ptr noundef nonnull align 8 dereferenceable(8) %__b) #3 comdat align 2 {
entry:
  %__b.addr = alloca ptr, align 8
  store ptr %__b, ptr %__b.addr, align 8, !tbaa !3
  %0 = load ptr, ptr %__b.addr, align 8, !tbaa !3
  %_M_head_impl = getelementptr inbounds nuw %"struct.std::_Head_base.31", ptr %0, i32 0, i32 0
  ret ptr %_M_head_impl
}

; Function Attrs: mustprogress nounwind uwtable
define linkonce_odr noundef nonnull align 8 dereferenceable(8) ptr @_ZNSt11_Tuple_implILm0EJPdSt14default_deleteIA_dEEE7_M_headERKS4_(ptr noundef nonnull align 8 dereferenceable(8) %__t) #3 comdat align 2 {
entry:
  %__t.addr = alloca ptr, align 8
  store ptr %__t, ptr %__t.addr, align 8, !tbaa !3
  %0 = load ptr, ptr %__t.addr, align 8, !tbaa !3
  %call = call noundef nonnull align 8 dereferenceable(8) ptr @_ZNSt10_Head_baseILm0EPdLb0EE7_M_headERKS1_(ptr noundef nonnull align 8 dereferenceable(8) %0) #9
  ret ptr %call
}

; Function Attrs: mustprogress nounwind uwtable
define linkonce_odr noundef nonnull align 8 dereferenceable(8) ptr @_ZSt12__get_helperILm0EPdJSt14default_deleteIA_dEEERKT0_RKSt11_Tuple_implIXT_EJS4_DpT1_EE(ptr noundef nonnull align 8 dereferenceable(8) %__t) #3 comdat {
entry:
  %__t.addr = alloca ptr, align 8
  store ptr %__t, ptr %__t.addr, align 8, !tbaa !3
  %0 = load ptr, ptr %__t.addr, align 8, !tbaa !3
  %call = call noundef nonnull align 8 dereferenceable(8) ptr @_ZNSt11_Tuple_implILm0EJPdSt14default_deleteIA_dEEE7_M_headERKS4_(ptr noundef nonnull align 8 dereferenceable(8) %0) #9
  ret ptr %call
}

; Function Attrs: mustprogress nounwind uwtable
define linkonce_odr noundef nonnull align 8 dereferenceable(8) ptr @_ZSt3getILm0EJPdSt14default_deleteIA_dEEERKNSt13tuple_elementIXT_ESt5tupleIJDpT0_EEE4typeERKS8_(ptr noundef nonnull align 8 dereferenceable(8) %__t) #3 comdat {
entry:
  %__t.addr = alloca ptr, align 8
  store ptr %__t, ptr %__t.addr, align 8, !tbaa !3
  %0 = load ptr, ptr %__t.addr, align 8, !tbaa !3
  %call = call noundef nonnull align 8 dereferenceable(8) ptr @_ZSt12__get_helperILm0EPdJSt14default_deleteIA_dEEERKT0_RKSt11_Tuple_implIXT_EJS4_DpT1_EE(ptr noundef nonnull align 8 dereferenceable(8) %0) #9
  ret ptr %call
}

; Function Attrs: mustprogress nounwind uwtable
define linkonce_odr noundef ptr @_ZNKSt15__uniq_ptr_implIdSt14default_deleteIA_dEE6_M_ptrEv(ptr noundef nonnull align 8 dereferenceable(8) %this) #3 comdat align 2 {
entry:
  %this.addr = alloca ptr, align 8
  store ptr %this, ptr %this.addr, align 8, !tbaa !3
  %this1 = load ptr, ptr %this.addr, align 8
  %_M_t = getelementptr inbounds nuw %"class.std::__uniq_ptr_impl", ptr %this1, i32 0, i32 0
  %call = call noundef nonnull align 8 dereferenceable(8) ptr @_ZSt3getILm0EJPdSt14default_deleteIA_dEEERKNSt13tuple_elementIXT_ESt5tupleIJDpT0_EEE4typeERKS8_(ptr noundef nonnull align 8 dereferenceable(8) %_M_t) #9
  %0 = load ptr, ptr %call, align 8, !tbaa !3
  ret ptr %0
}

; Function Attrs: mustprogress nounwind uwtable
define linkonce_odr noundef i64 @_ZNKSt6vectorIdSaIdEE4sizeEv(ptr noundef nonnull align 8 dereferenceable(24) %this) #3 comdat align 2 {
entry:
  %this.addr = alloca ptr, align 8
  store ptr %this, ptr %this.addr, align 8, !tbaa !3
  %this1 = load ptr, ptr %this.addr, align 8
  %_M_impl = getelementptr inbounds nuw %"struct.std::_Vector_base.26", ptr %this1, i32 0, i32 0
  %_M_finish = getelementptr inbounds nuw %"struct.std::_Vector_base<double, std::allocator<double>>::_Vector_impl_data", ptr %_M_impl, i32 0, i32 1
  %0 = load ptr, ptr %_M_finish, align 8, !tbaa !24
  %_M_impl2 = getelementptr inbounds nuw %"struct.std::_Vector_base.26", ptr %this1, i32 0, i32 0
  %_M_start = getelementptr inbounds nuw %"struct.std::_Vector_base<double, std::allocator<double>>::_Vector_impl_data", ptr %_M_impl2, i32 0, i32 0
  %1 = load ptr, ptr %_M_start, align 8, !tbaa !26
  %sub.ptr.lhs.cast = ptrtoint ptr %0 to i64
  %sub.ptr.rhs.cast = ptrtoint ptr %1 to i64
  %sub.ptr.sub = sub i64 %sub.ptr.lhs.cast, %sub.ptr.rhs.cast
  %sub.ptr.div = sdiv exact i64 %sub.ptr.sub, 8
  ret i64 %sub.ptr.div
}

; Function Attrs: mustprogress nounwind uwtable
define linkonce_odr noundef ptr @_ZNKSt10unique_ptrIA_dSt14default_deleteIS0_EE3getEv(ptr noundef nonnull align 8 dereferenceable(8) %this) #3 comdat align 2 {
entry:
  %this.addr = alloca ptr, align 8
  store ptr %this, ptr %this.addr, align 8, !tbaa !3
  %this1 = load ptr, ptr %this.addr, align 8
  %_M_t = getelementptr inbounds nuw %"class.std::unique_ptr", ptr %this1, i32 0, i32 0
  %call = call noundef ptr @_ZNKSt15__uniq_ptr_implIdSt14default_deleteIA_dEE6_M_ptrEv(ptr noundef nonnull align 8 dereferenceable(8) %_M_t) #9
  ret ptr %call
}

; Function Attrs: mustprogress nounwind uwtable
define linkonce_odr noundef i64 @_ZNK8QuantLib8TimeGrid4sizeEv(ptr noundef nonnull align 8 dereferenceable(72) %this) #3 comdat align 2 {
entry:
  %this.addr = alloca ptr, align 8
  store ptr %this, ptr %this.addr, align 8, !tbaa !3
  %this1 = load ptr, ptr %this.addr, align 8
  %times_ = getelementptr inbounds nuw %"class.QuantLib::TimeGrid", ptr %this1, i32 0, i32 0
  %call = call noundef i64 @_ZNKSt6vectorIdSaIdEE4sizeEv(ptr noundef nonnull align 8 dereferenceable(24) %times_) #9
  ret i64 %call
}

; Function Attrs: inlinehint mustprogress nounwind uwtable
define linkonce_odr noundef double @_ZNK8QuantLib5ArrayixEm(ptr noundef nonnull align 8 dereferenceable(16) %this, i64 noundef %i) #4 comdat align 2 {
entry:
  %this.addr = alloca ptr, align 8
  %i.addr = alloca i64, align 8
  store ptr %this, ptr %this.addr, align 8, !tbaa !3
  store i64 %i, ptr %i.addr, align 8, !tbaa !16
  %this1 = load ptr, ptr %this.addr, align 8
  %data_ = getelementptr inbounds nuw %"class.QuantLib::Array", ptr %this1, i32 0, i32 0
  %call = call noundef ptr @_ZNKSt10unique_ptrIA_dSt14default_deleteIS0_EE3getEv(ptr noundef nonnull align 8 dereferenceable(8) %data_) #9
  %0 = load i64, ptr %i.addr, align 8, !tbaa !16
  %arrayidx = getelementptr inbounds nuw double, ptr %call, i64 %0
  %1 = load double, ptr %arrayidx, align 8, !tbaa !7
  ret double %1
}

; Function Attrs: inlinehint mustprogress uwtable
define linkonce_odr noundef i64 @_ZNK8QuantLib4Path6lengthEv(ptr noundef nonnull align 8 dereferenceable(88) %this) #6 comdat align 2 {
entry:
  %this.addr = alloca ptr, align 8
  store ptr %this, ptr %this.addr, align 8, !tbaa !3
  %this1 = load ptr, ptr %this.addr, align 8
  %timeGrid_ = getelementptr inbounds nuw %"class.QuantLib::Path", ptr %this1, i32 0, i32 0
  %call = call noundef i64 @_ZNK8QuantLib8TimeGrid4sizeEv(ptr noundef nonnull align 8 dereferenceable(72) %timeGrid_)
  ret i64 %call
}

; Function Attrs: mustprogress nounwind uwtable
define linkonce_odr noundef nonnull align 8 dereferenceable(88) ptr @_ZNKSt6vectorIN8QuantLib4PathESaIS1_EEixEm(ptr noundef nonnull align 8 dereferenceable(24) %this, i64 noundef %__n) #3 comdat align 2 {
entry:
  %this.addr = alloca ptr, align 8
  %__n.addr = alloca i64, align 8
  store ptr %this, ptr %this.addr, align 8, !tbaa !3
  store i64 %__n, ptr %__n.addr, align 8, !tbaa !16
  %this1 = load ptr, ptr %this.addr, align 8
  %_M_impl = getelementptr inbounds nuw %"struct.std::_Vector_base", ptr %this1, i32 0, i32 0
  %_M_start = getelementptr inbounds nuw %"struct.std::_Vector_base<QuantLib::Path, std::allocator<QuantLib::Path>>::_Vector_impl_data", ptr %_M_impl, i32 0, i32 0
  %0 = load ptr, ptr %_M_start, align 8, !tbaa !23
  %1 = load i64, ptr %__n.addr, align 8, !tbaa !16
  %add.ptr = getelementptr inbounds nuw %"class.QuantLib::Path", ptr %0, i64 %1
  ret ptr %add.ptr
}

; Function Attrs: mustprogress nounwind uwtable
define linkonce_odr noundef i64 @_ZNKSt6vectorIN8QuantLib4PathESaIS1_EE4sizeEv(ptr noundef nonnull align 8 dereferenceable(24) %this) #3 comdat align 2 {
entry:
  %this.addr = alloca ptr, align 8
  store ptr %this, ptr %this.addr, align 8, !tbaa !3
  %this1 = load ptr, ptr %this.addr, align 8
  %_M_impl = getelementptr inbounds nuw %"struct.std::_Vector_base", ptr %this1, i32 0, i32 0
  %_M_finish = getelementptr inbounds nuw %"struct.std::_Vector_base<QuantLib::Path, std::allocator<QuantLib::Path>>::_Vector_impl_data", ptr %_M_impl, i32 0, i32 1
  %0 = load ptr, ptr %_M_finish, align 8, !tbaa !21
  %_M_impl2 = getelementptr inbounds nuw %"struct.std::_Vector_base", ptr %this1, i32 0, i32 0
  %_M_start = getelementptr inbounds nuw %"struct.std::_Vector_base<QuantLib::Path, std::allocator<QuantLib::Path>>::_Vector_impl_data", ptr %_M_impl2, i32 0, i32 0
  %1 = load ptr, ptr %_M_start, align 8, !tbaa !23
  %sub.ptr.lhs.cast = ptrtoint ptr %0 to i64
  %sub.ptr.rhs.cast = ptrtoint ptr %1 to i64
  %sub.ptr.sub = sub i64 %sub.ptr.lhs.cast, %sub.ptr.rhs.cast
  %sub.ptr.div = sdiv exact i64 %sub.ptr.sub, 88
  ret i64 %sub.ptr.div
}

; Function Attrs: inlinehint mustprogress nounwind uwtable
define linkonce_odr noundef nonnull align 8 dereferenceable(8) ptr @_ZSt3maxIdERKT_S2_S2_(ptr noundef nonnull align 8 dereferenceable(8) %__a, ptr noundef nonnull align 8 dereferenceable(8) %__b) #4 comdat {
entry:
  %retval = alloca ptr, align 8
  %__a.addr = alloca ptr, align 8
  %__b.addr = alloca ptr, align 8
  store ptr %__a, ptr %__a.addr, align 8, !tbaa !3
  store ptr %__b, ptr %__b.addr, align 8, !tbaa !3
  %0 = load ptr, ptr %__a.addr, align 8, !tbaa !3
  %1 = load double, ptr %0, align 8, !tbaa !7
  %2 = load ptr, ptr %__b.addr, align 8, !tbaa !3
  %3 = load double, ptr %2, align 8, !tbaa !7
  %cmp = fcmp olt double %1, %3
  br i1 %cmp, label %if.then, label %if.end

if.then:                                          ; preds = %entry
  %4 = load ptr, ptr %__b.addr, align 8, !tbaa !3
  store ptr %4, ptr %retval, align 8
  br label %return

if.end:                                           ; preds = %entry
  %5 = load ptr, ptr %__a.addr, align 8, !tbaa !3
  store ptr %5, ptr %retval, align 8
  br label %return

return:                                           ; preds = %if.end, %if.then
  %6 = load ptr, ptr %retval, align 8
  ret ptr %6
}

; Function Attrs: inlinehint mustprogress nounwind uwtable
define linkonce_odr noundef nonnull align 8 dereferenceable(8) ptr @_ZSt3minIdERKT_S2_S2_(ptr noundef nonnull align 8 dereferenceable(8) %__a, ptr noundef nonnull align 8 dereferenceable(8) %__b) #4 comdat {
entry:
  %retval = alloca ptr, align 8
  %__a.addr = alloca ptr, align 8
  %__b.addr = alloca ptr, align 8
  store ptr %__a, ptr %__a.addr, align 8, !tbaa !3
  store ptr %__b, ptr %__b.addr, align 8, !tbaa !3
  %0 = load ptr, ptr %__b.addr, align 8, !tbaa !3
  %1 = load double, ptr %0, align 8, !tbaa !7
  %2 = load ptr, ptr %__a.addr, align 8, !tbaa !3
  %3 = load double, ptr %2, align 8, !tbaa !7
  %cmp = fcmp olt double %1, %3
  br i1 %cmp, label %if.then, label %if.end

if.then:                                          ; preds = %entry
  %4 = load ptr, ptr %__b.addr, align 8, !tbaa !3
  store ptr %4, ptr %retval, align 8
  br label %return

if.end:                                           ; preds = %entry
  %5 = load ptr, ptr %__a.addr, align 8, !tbaa !3
  store ptr %5, ptr %retval, align 8
  br label %return

return:                                           ; preds = %if.end, %if.then
  %6 = load ptr, ptr %retval, align 8
  ret ptr %6
}

; Function Attrs: inlinehint mustprogress nounwind uwtable
define linkonce_odr noundef double @_ZNK8QuantLib4PathixEm(ptr noundef nonnull align 8 dereferenceable(88) %this, i64 noundef %i) #4 comdat align 2 {
entry:
  %this.addr = alloca ptr, align 8
  %i.addr = alloca i64, align 8
  store ptr %this, ptr %this.addr, align 8, !tbaa !3
  store i64 %i, ptr %i.addr, align 8, !tbaa !16
  %this1 = load ptr, ptr %this.addr, align 8
  %values_ = getelementptr inbounds nuw %"class.QuantLib::Path", ptr %this1, i32 0, i32 1
  %0 = load i64, ptr %i.addr, align 8, !tbaa !16
  %call = call noundef double @_ZNK8QuantLib5ArrayixEm(ptr noundef nonnull align 8 dereferenceable(16) %values_, i64 noundef %0)
  ret double %call
}

; Function Attrs: inlinehint mustprogress uwtable
define linkonce_odr noundef double @_ZNK8QuantLib4Path5frontEv(ptr noundef nonnull align 8 dereferenceable(88) %this) #6 comdat align 2 {
entry:
  %this.addr = alloca ptr, align 8
  store ptr %this, ptr %this.addr, align 8, !tbaa !3
  %this1 = load ptr, ptr %this.addr, align 8
  %values_ = getelementptr inbounds nuw %"class.QuantLib::Path", ptr %this1, i32 0, i32 1
  %call = call noundef double @_ZNK8QuantLib5ArrayixEm(ptr noundef nonnull align 8 dereferenceable(16) %values_, i64 noundef 0)
  ret double %call
}

; Function Attrs: mustprogress nounwind uwtable
define linkonce_odr noundef nonnull align 8 dereferenceable(88) ptr @_ZNK8QuantLib9MultiPathixEm(ptr noundef nonnull align 8 dereferenceable(24) %this, i64 noundef %j) #3 comdat align 2 {
entry:
  %this.addr = alloca ptr, align 8
  %j.addr = alloca i64, align 8
  store ptr %this, ptr %this.addr, align 8, !tbaa !3
  store i64 %j, ptr %j.addr, align 8, !tbaa !16
  %this1 = load ptr, ptr %this.addr, align 8
  %multiPath_ = getelementptr inbounds nuw %"class.QuantLib::MultiPath", ptr %this1, i32 0, i32 0
  %0 = load i64, ptr %j.addr, align 8, !tbaa !16
  %call = call noundef nonnull align 8 dereferenceable(88) ptr @_ZNKSt6vectorIN8QuantLib4PathESaIS1_EEixEm(ptr noundef nonnull align 8 dereferenceable(24) %multiPath_, i64 noundef %0) #9
  ret ptr %call
}

; Function Attrs: mustprogress uwtable
define linkonce_odr noundef i64 @_ZNK8QuantLib9MultiPath8pathSizeEv(ptr noundef nonnull align 8 dereferenceable(24) %this) #5 comdat align 2 {
entry:
  %this.addr = alloca ptr, align 8
  store ptr %this, ptr %this.addr, align 8, !tbaa !3
  %this1 = load ptr, ptr %this.addr, align 8
  %multiPath_ = getelementptr inbounds nuw %"class.QuantLib::MultiPath", ptr %this1, i32 0, i32 0
  %call = call noundef nonnull align 8 dereferenceable(88) ptr @_ZNKSt6vectorIN8QuantLib4PathESaIS1_EEixEm(ptr noundef nonnull align 8 dereferenceable(24) %multiPath_, i64 noundef 0) #9
  %call2 = call noundef i64 @_ZNK8QuantLib4Path6lengthEv(ptr noundef nonnull align 8 dereferenceable(88) %call)
  ret i64 %call2
}

; Function Attrs: mustprogress nounwind uwtable
define linkonce_odr noundef i64 @_ZNK8QuantLib9MultiPath11assetNumberEv(ptr noundef nonnull align 8 dereferenceable(24) %this) #3 comdat align 2 {
entry:
  %this.addr = alloca ptr, align 8
  store ptr %this, ptr %this.addr, align 8, !tbaa !3
  %this1 = load ptr, ptr %this.addr, align 8
  %multiPath_ = getelementptr inbounds nuw %"class.QuantLib::MultiPath", ptr %this1, i32 0, i32 0
  %call = call noundef i64 @_ZNKSt6vectorIN8QuantLib4PathESaIS1_EE4sizeEv(ptr noundef nonnull align 8 dereferenceable(24) %multiPath_) #9
  ret i64 %call
}

; Function Attrs: mustprogress uwtable
define noundef double @_ZNK8QuantLib21PagodaMultiPathPricerclERKNS_9MultiPathE(ptr noundef nonnull align 8 dereferenceable(32) %this, ptr noundef nonnull align 8 dereferenceable(24) %multiPath) unnamed_addr #5 align 2 {
entry:
  %this.addr = alloca ptr, align 8
  %multiPath.addr = alloca ptr, align 8
  %numAssets = alloca i64, align 8
  %numSteps = alloca i64, align 8
  %averagePerformance = alloca double, align 8
  %i = alloca i64, align 8
  %cleanup.dest.slot = alloca i32, align 4
  %j = alloca i64, align 8
  %ref.tmp = alloca double, align 8
  store ptr %this, ptr %this.addr, align 8, !tbaa !3
  store ptr %multiPath, ptr %multiPath.addr, align 8, !tbaa !3
  %this1 = load ptr, ptr %this.addr, align 8
  call void @llvm.lifetime.start.p0(i64 8, ptr %numAssets) #9
  %0 = load ptr, ptr %multiPath.addr, align 8, !tbaa !3
  %call = call noundef i64 @_ZNK8QuantLib9MultiPath11assetNumberEv(ptr noundef nonnull align 8 dereferenceable(24) %0)
  store i64 %call, ptr %numAssets, align 8, !tbaa !16
  call void @llvm.lifetime.start.p0(i64 8, ptr %numSteps) #9
  %1 = load ptr, ptr %multiPath.addr, align 8, !tbaa !3
  %call2 = call noundef i64 @_ZNK8QuantLib9MultiPath8pathSizeEv(ptr noundef nonnull align 8 dereferenceable(24) %1)
  store i64 %call2, ptr %numSteps, align 8, !tbaa !16
  call void @llvm.lifetime.start.p0(i64 8, ptr %averagePerformance) #9
  store double 0.000000e+00, ptr %averagePerformance, align 8, !tbaa !7
  call void @llvm.lifetime.start.p0(i64 8, ptr %i) #9
  store i64 1, ptr %i, align 8, !tbaa !16
  br label %for.cond

for.cond:                                         ; preds = %for.inc14, %entry
  %2 = load i64, ptr %i, align 8, !tbaa !16
  %3 = load i64, ptr %numSteps, align 8, !tbaa !16
  %cmp = icmp ult i64 %2, %3
  br i1 %cmp, label %for.body, label %for.cond.cleanup

for.cond.cleanup:                                 ; preds = %for.cond
  store i32 2, ptr %cleanup.dest.slot, align 4
  call void @llvm.lifetime.end.p0(i64 8, ptr %i) #9
  br label %for.end16

for.body:                                         ; preds = %for.cond
  call void @llvm.lifetime.start.p0(i64 8, ptr %j) #9
  store i64 0, ptr %j, align 8, !tbaa !16
  br label %for.cond3

for.cond3:                                        ; preds = %for.inc, %for.body
  %4 = load i64, ptr %j, align 8, !tbaa !16
  %5 = load i64, ptr %numAssets, align 8, !tbaa !16
  %cmp4 = icmp ult i64 %4, %5
  br i1 %cmp4, label %for.body6, label %for.cond.cleanup5

for.cond.cleanup5:                                ; preds = %for.cond3
  store i32 5, ptr %cleanup.dest.slot, align 4
  call void @llvm.lifetime.end.p0(i64 8, ptr %j) #9
  br label %for.end

for.body6:                                        ; preds = %for.cond3
  %6 = load ptr, ptr %multiPath.addr, align 8, !tbaa !3
  %7 = load i64, ptr %j, align 8, !tbaa !16
  %call7 = call noundef nonnull align 8 dereferenceable(88) ptr @_ZNK8QuantLib9MultiPathixEm(ptr noundef nonnull align 8 dereferenceable(24) %6, i64 noundef %7)
  %call8 = call noundef double @_ZNK8QuantLib4Path5frontEv(ptr noundef nonnull align 8 dereferenceable(88) %call7)
  %8 = load ptr, ptr %multiPath.addr, align 8, !tbaa !3
  %9 = load i64, ptr %j, align 8, !tbaa !16
  %call9 = call noundef nonnull align 8 dereferenceable(88) ptr @_ZNK8QuantLib9MultiPathixEm(ptr noundef nonnull align 8 dereferenceable(24) %8, i64 noundef %9)
  %10 = load i64, ptr %i, align 8, !tbaa !16
  %call10 = call noundef double @_ZNK8QuantLib4PathixEm(ptr noundef nonnull align 8 dereferenceable(88) %call9, i64 noundef %10)
  %11 = load ptr, ptr %multiPath.addr, align 8, !tbaa !3
  %12 = load i64, ptr %j, align 8, !tbaa !16
  %call11 = call noundef nonnull align 8 dereferenceable(88) ptr @_ZNK8QuantLib9MultiPathixEm(ptr noundef nonnull align 8 dereferenceable(24) %11, i64 noundef %12)
  %13 = load i64, ptr %i, align 8, !tbaa !16
  %sub = sub i64 %13, 1
  %call12 = call noundef double @_ZNK8QuantLib4PathixEm(ptr noundef nonnull align 8 dereferenceable(88) %call11, i64 noundef %sub)
  %div = fdiv double %call10, %call12
  %sub13 = fsub double %div, 1.000000e+00
  %14 = load double, ptr %averagePerformance, align 8, !tbaa !7
  %15 = call double @llvm.fmuladd.f64(double %call8, double %sub13, double %14)
  store double %15, ptr %averagePerformance, align 8, !tbaa !7
  br label %for.inc

for.inc:                                          ; preds = %for.body6
  %16 = load i64, ptr %j, align 8, !tbaa !16
  %inc = add i64 %16, 1
  store i64 %inc, ptr %j, align 8, !tbaa !16
  br label %for.cond3, !llvm.loop !18

for.end:                                          ; preds = %for.cond.cleanup5
  br label %for.inc14

for.inc14:                                        ; preds = %for.end
  %17 = load i64, ptr %i, align 8, !tbaa !16
  %inc15 = add i64 %17, 1
  store i64 %inc15, ptr %i, align 8, !tbaa !16
  br label %for.cond, !llvm.loop !20

for.end16:                                        ; preds = %for.cond.cleanup
  %18 = load i64, ptr %numAssets, align 8, !tbaa !16
  %conv = uitofp i64 %18 to double
  %19 = load double, ptr %averagePerformance, align 8, !tbaa !7
  %div17 = fdiv double %19, %conv
  store double %div17, ptr %averagePerformance, align 8, !tbaa !7
  %discount_ = getelementptr inbounds nuw %"class.QuantLib::PagodaMultiPathPricer", ptr %this1, i32 0, i32 1
  %20 = load double, ptr %discount_, align 8, !tbaa !11
  %fraction_ = getelementptr inbounds nuw %"class.QuantLib::PagodaMultiPathPricer", ptr %this1, i32 0, i32 3
  %21 = load double, ptr %fraction_, align 8, !tbaa !15
  %mul = fmul double %20, %21
  call void @llvm.lifetime.start.p0(i64 8, ptr %ref.tmp) #9
  store double 0.000000e+00, ptr %ref.tmp, align 8, !tbaa !7
  %roof_ = getelementptr inbounds nuw %"class.QuantLib::PagodaMultiPathPricer", ptr %this1, i32 0, i32 2
  %call18 = call noundef nonnull align 8 dereferenceable(8) ptr @_ZSt3minIdERKT_S2_S2_(ptr noundef nonnull align 8 dereferenceable(8) %roof_, ptr noundef nonnull align 8 dereferenceable(8) %averagePerformance)
  %call19 = call noundef nonnull align 8 dereferenceable(8) ptr @_ZSt3maxIdERKT_S2_S2_(ptr noundef nonnull align 8 dereferenceable(8) %ref.tmp, ptr noundef nonnull align 8 dereferenceable(8) %call18)
  %22 = load double, ptr %call19, align 8, !tbaa !7
  %mul20 = fmul double %mul, %22
  call void @llvm.lifetime.end.p0(i64 8, ptr %ref.tmp) #9
  store i32 1, ptr %cleanup.dest.slot, align 4
  call void @llvm.lifetime.end.p0(i64 8, ptr %averagePerformance) #9
  call void @llvm.lifetime.end.p0(i64 8, ptr %numSteps) #9
  call void @llvm.lifetime.end.p0(i64 8, ptr %numAssets) #9
  ret double %mul20
}