; Function Attrs: mustprogress nofree norecurse nosync nounwind willreturn memory(read, inaccessiblemem: none) uwtable
define noundef double @_ZNK8QuantLib21PagodaMultiPathPricerclERKNS_9MultiPathE(ptr nocapture noundef nonnull readonly align 8 dereferenceable(32) %this, ptr nocapture noundef nonnull readonly align 8 dereferenceable(24) %multiPath) unnamed_addr #1 align 2 {
entry:
  %_M_finish.i.i = getelementptr inbounds nuw i8, ptr %multiPath, i64 8
  %0 = load ptr, ptr %_M_finish.i.i, align 8, !tbaa !13
  %1 = load ptr, ptr %multiPath, align 8, !tbaa !16
  %sub.ptr.lhs.cast.i.i = ptrtoint ptr %0 to i64
  %sub.ptr.rhs.cast.i.i = ptrtoint ptr %1 to i64
  %sub.ptr.sub.i.i = sub i64 %sub.ptr.lhs.cast.i.i, %sub.ptr.rhs.cast.i.i
  %sub.ptr.div.i.i = sdiv exact i64 %sub.ptr.sub.i.i, 88
  %_M_finish.i.i.i.i = getelementptr inbounds nuw i8, ptr %1, i64 8
  %2 = load ptr, ptr %_M_finish.i.i.i.i, align 8, !tbaa !17
  %3 = load ptr, ptr %1, align 8, !tbaa !19
  %sub.ptr.lhs.cast.i.i.i.i = ptrtoint ptr %2 to i64
  %sub.ptr.rhs.cast.i.i.i.i = ptrtoint ptr %3 to i64
  %sub.ptr.sub.i.i.i.i = sub i64 %sub.ptr.lhs.cast.i.i.i.i, %sub.ptr.rhs.cast.i.i.i.i
  %sub.ptr.div.i.i.i.i = ashr exact i64 %sub.ptr.sub.i.i.i.i, 3
  %cmp26 = icmp ult i64 %sub.ptr.div.i.i.i.i, 2
  %cmp423.not = icmp eq ptr %0, %1
  %or.cond = select i1 %cmp26, i1 true, i1 %cmp423.not
  br i1 %or.cond, label %for.cond.cleanup, label %for.cond3.preheader.us.preheader

for.cond3.preheader.us.preheader:                 ; preds = %entry
  %umax = tail call i64 @llvm.umax.i64(i64 %sub.ptr.div.i.i, i64 1)
  br label %for.cond3.preheader.us

for.cond3.preheader.us:                           ; preds = %for.cond3.preheader.us.preheader, %for.cond3.for.cond.cleanup5_crit_edge.us
  %i.028.us = phi i64 [ %inc15.us, %for.cond3.for.cond.cleanup5_crit_edge.us ], [ 1, %for.cond3.preheader.us.preheader ]
  %averagePerformance.027.us = phi double [ %8, %for.cond3.for.cond.cleanup5_crit_edge.us ], [ 0.000000e+00, %for.cond3.preheader.us.preheader ]
  br label %for.body6.us

for.body6.us:                                     ; preds = %for.cond3.preheader.us, %for.body6.us
  %j.025.us = phi i64 [ 0, %for.cond3.preheader.us ], [ %inc.us, %for.body6.us ]
  %averagePerformance.124.us = phi double [ %averagePerformance.027.us, %for.cond3.preheader.us ], [ %8, %for.body6.us ]
  %values_.i.us = getelementptr inbounds nuw %"class.QuantLib::Path", ptr %1, i64 %j.025.us, i32 1
  %4 = load ptr, ptr %values_.i.us, align 8, !tbaa !20
  %5 = load double, ptr %4, align 8, !tbaa !21
  %arrayidx.i.i.us = getelementptr double, ptr %4, i64 %i.028.us
  %6 = load double, ptr %arrayidx.i.i.us, align 8, !tbaa !21
  %arrayidx.i.i19.us = getelementptr i8, ptr %arrayidx.i.i.us, i64 -8
  %7 = load double, ptr %arrayidx.i.i19.us, align 8, !tbaa !21
  %div.us = fdiv double %6, %7
  %sub13.us = fadd double %div.us, -1.000000e+00
  %8 = tail call double @llvm.fmuladd.f64(double %5, double %sub13.us, double %averagePerformance.124.us)
  %inc.us = add nuw i64 %j.025.us, 1
  %exitcond.not = icmp eq i64 %inc.us, %umax
  br i1 %exitcond.not, label %for.cond3.for.cond.cleanup5_crit_edge.us, label %for.body6.us, !llvm.loop !22

for.cond3.for.cond.cleanup5_crit_edge.us:         ; preds = %for.body6.us
  %inc15.us = add nuw i64 %i.028.us, 1
  %exitcond31.not = icmp eq i64 %inc15.us, %sub.ptr.div.i.i.i.i
  br i1 %exitcond31.not, label %for.cond.cleanup, label %for.cond3.preheader.us, !llvm.loop !24

for.cond.cleanup:                                 ; preds = %for.cond3.for.cond.cleanup5_crit_edge.us, %entry
  %averagePerformance.0.lcssa = phi double [ 0.000000e+00, %entry ], [ %8, %for.cond3.for.cond.cleanup5_crit_edge.us ]
  %conv = uitofp i64 %sub.ptr.div.i.i to double
  %div17 = fdiv double %averagePerformance.0.lcssa, %conv
  %discount_ = getelementptr inbounds nuw i8, ptr %this, i64 8
  %9 = load double, ptr %discount_, align 8, !tbaa !6
  %fraction_ = getelementptr inbounds nuw i8, ptr %this, i64 24
  %10 = load double, ptr %fraction_, align 8, !tbaa !12
  %mul = fmul double %9, %10
  %roof_ = getelementptr inbounds nuw i8, ptr %this, i64 16
  %11 = load double, ptr %roof_, align 8, !tbaa !21
  %cmp.i = fcmp olt double %div17, %11
  %.sroa.speculated22 = select i1 %cmp.i, double %div17, double %11
  %cmp.i13 = fcmp ogt double %.sroa.speculated22, 0.000000e+00
  %.sroa.speculated = select i1 %cmp.i13, double %.sroa.speculated22, double 0.000000e+00
  %mul20 = fmul double %mul, %.sroa.speculated
  ret double %mul20
}